target datalayout = "e-m:e-p270:32:32-p271:32:32-p272:64:64-i64:64-i128:128-f80:128-n8:16:32:64-S128"
target triple = "x86_64-pc-linux-gnu"

%struct.config_set = type { %struct.hashmap, i32, %struct.configset_list }
%struct.hashmap = type { ptr, ptr, ptr, i32, i32, i32, i32, i8 }
%struct.configset_list = type { ptr, i32, i32 }
%struct.config_context = type { ptr }
%struct.config_set_element = type { %struct.hashmap_entry, ptr, %struct.string_list }
%struct.hashmap_entry = type { ptr, i32 }
%struct.string_list = type { ptr, i64, i64, i8, ptr }
%struct.string_list_item = type { ptr, ptr }
%struct.configset_list_item = type { ptr, i32 }

@.str.242 = private unnamed_addr constant [27 x i8] c"size_t overflow: %lu * %lu\00", align 1

; Function Attrs: inlinehint nounwind uwtable
define internal ptr @container_of_or_null_offset(ptr noundef %0, i64 noundef %1) #6 {
  %3 = alloca ptr, align 8
  %4 = alloca i64, align 8
  store ptr %0, ptr %3, align 8, !tbaa !30
  store i64 %1, ptr %4, align 8, !tbaa !19
  %5 = load ptr, ptr %3, align 8, !tbaa !30
  %6 = icmp ne ptr %5, null
  br i1 %6, label %7, label %12

7:                                                ; preds = %2
  %8 = load ptr, ptr %3, align 8, !tbaa !30
  %9 = load i64, ptr %4, align 8, !tbaa !19
  %10 = sub i64 0, %9
  %11 = getelementptr inbounds i8, ptr %8, i64 %10
  br label %13

12:                                               ; preds = %2
  br label %13

13:                                               ; preds = %12, %7
  %14 = phi ptr [ %11, %7 ], [ null, %12 ]
  ret ptr %14
}

; Function Attrs: inlinehint nounwind uwtable
define internal i64 @st_mult(i64 noundef %0, i64 noundef %1) #6 {
  %3 = alloca i64, align 8
  %4 = alloca i64, align 8
  store i64 %0, ptr %3, align 8, !tbaa !19
  store i64 %1, ptr %4, align 8, !tbaa !19
  %5 = load i64, ptr %3, align 8, !tbaa !19
  %6 = icmp ne i64 %5, 0
  br i1 %6, label %7, label %15

7:                                                ; preds = %2
  %8 = load i64, ptr %4, align 8, !tbaa !19
  %9 = load i64, ptr %3, align 8, !tbaa !19
  %10 = udiv i64 -1, %9
  %11 = icmp ugt i64 %8, %10
  br i1 %11, label %12, label %15

12:                                               ; preds = %7
  %13 = load i64, ptr %3, align 8, !tbaa !19
  %14 = load i64, ptr %4, align 8, !tbaa !19
  call void (ptr, ...) @die(ptr noundef @.str.242, i64 noundef %13, i64 noundef %14) #15
  unreachable

15:                                               ; preds = %7, %2
  %16 = load i64, ptr %3, align 8, !tbaa !19
  %17 = load i64, ptr %4, align 8, !tbaa !19
  %18 = mul i64 %16, %17
  ret i64 %18
}

; Function Attrs: inlinehint nounwind uwtable
define internal ptr @xstrdup_or_null(ptr noundef %0) #6 {
  %2 = alloca ptr, align 8
  store ptr %0, ptr %2, align 8, !tbaa !4
  %3 = load ptr, ptr %2, align 8, !tbaa !4
  %4 = icmp ne ptr %3, null
  br i1 %4, label %5, label %8

5:                                                ; preds = %1
  %6 = load ptr, ptr %2, align 8, !tbaa !4
  %7 = call ptr @xstrdup(ptr noundef %6)
  br label %9

8:                                                ; preds = %1
  br label %9

9:                                                ; preds = %8, %5
  %10 = phi ptr [ %7, %5 ], [ null, %8 ]
  ret ptr %10
}

; Function Attrs: inlinehint nounwind uwtable
define internal void @hashmap_entry_init(ptr noundef %0, i32 noundef %1) #6 {
  %3 = alloca ptr, align 8
  %4 = alloca i32, align 4
  store ptr %0, ptr %3, align 8, !tbaa !115
  store i32 %1, ptr %4, align 4, !tbaa !13
  %5 = load i32, ptr %4, align 4, !tbaa !13
  %6 = load ptr, ptr %3, align 8, !tbaa !115
  %7 = getelementptr inbounds nuw %struct.hashmap_entry, ptr %6, i32 0, i32 1
  store i32 %5, ptr %7, align 8, !tbaa !227
  %8 = load ptr, ptr %3, align 8, !tbaa !115
  %9 = getelementptr inbounds nuw %struct.hashmap_entry, ptr %8, i32 0, i32 0
  store ptr null, ptr %9, align 8, !tbaa !228
  ret void
}

; Function Attrs: nounwind uwtable
define internal i32 @configset_find_element(ptr noundef %0, ptr noundef %1, ptr noundef %2) #0 {
  %4 = alloca i32, align 4
  %5 = alloca ptr, align 8
  %6 = alloca ptr, align 8
  %7 = alloca ptr, align 8
  %8 = alloca %struct.config_set_element, align 8
  %9 = alloca ptr, align 8
  %10 = alloca ptr, align 8
  %11 = alloca i32, align 4
  %12 = alloca i32, align 4
  store ptr %0, ptr %5, align 8, !tbaa !107
  store ptr %1, ptr %6, align 8, !tbaa !4
  store ptr %2, ptr %7, align 8, !tbaa !139
  call void @llvm.lifetime.start.p0(i64 64, ptr %8) #13
  call void @llvm.lifetime.start.p0(i64 8, ptr %9) #13
  call void @llvm.lifetime.start.p0(i64 8, ptr %10) #13
  call void @llvm.lifetime.start.p0(i64 4, ptr %11) #13
  %13 = load ptr, ptr %6, align 8, !tbaa !4
  %14 = call i32 @git_config_parse_key(ptr noundef %13, ptr noundef %10, ptr noundef null)
  store i32 %14, ptr %11, align 4, !tbaa !13
  %15 = load i32, ptr %11, align 4, !tbaa !13
  %16 = icmp ne i32 %15, 0
  br i1 %16, label %17, label %19

17:                                               ; preds = %3
  %18 = load i32, ptr %11, align 4, !tbaa !13
  store i32 %18, ptr %4, align 4
  store i32 1, ptr %12, align 4
  br label %33

19:                                               ; preds = %3
  %20 = getelementptr inbounds nuw %struct.config_set_element, ptr %8, i32 0, i32 0
  %21 = load ptr, ptr %10, align 8, !tbaa !4
  %22 = call i32 @strhash(ptr noundef %21)
  call void @hashmap_entry_init(ptr noundef %20, i32 noundef %22)
  %23 = load ptr, ptr %10, align 8, !tbaa !4
  %24 = getelementptr inbounds nuw %struct.config_set_element, ptr %8, i32 0, i32 1
  store ptr %23, ptr %24, align 8, !tbaa !119
  %25 = load ptr, ptr %5, align 8, !tbaa !107
  %26 = getelementptr inbounds nuw %struct.config_set, ptr %25, i32 0, i32 0
  %27 = getelementptr inbounds nuw %struct.config_set_element, ptr %8, i32 0, i32 0
  %28 = call ptr @hashmap_get(ptr noundef %26, ptr noundef %27, ptr noundef null)
  %29 = call ptr @container_of_or_null_offset(ptr noundef %28, i64 noundef 0)
  store ptr %29, ptr %9, align 8, !tbaa !117
  %30 = load ptr, ptr %10, align 8, !tbaa !4
  call void @free(ptr noundef %30) #13
  %31 = load ptr, ptr %9, align 8, !tbaa !117
  %32 = load ptr, ptr %7, align 8, !tbaa !139
  store ptr %31, ptr %32, align 8, !tbaa !117
  store i32 0, ptr %4, align 4
  store i32 1, ptr %12, align 4
  br label %33

33:                                               ; preds = %19, %17
  call void @llvm.lifetime.end.p0(i64 4, ptr %11) #13
  call void @llvm.lifetime.end.p0(i64 8, ptr %10) #13
  call void @llvm.lifetime.end.p0(i64 8, ptr %9) #13
  call void @llvm.lifetime.end.p0(i64 64, ptr %8) #13
  %34 = load i32, ptr %4, align 4
  ret i32 %34
}

; Function Attrs: nounwind uwtable
define internal i32 @configset_add_value(ptr noundef %0, ptr noundef %1, ptr noundef %2, ptr noundef %3) #0 {
  %5 = alloca i32, align 4
  %6 = alloca ptr, align 8
  %7 = alloca ptr, align 8
  %8 = alloca ptr, align 8
  %9 = alloca ptr, align 8
  %10 = alloca ptr, align 8
  %11 = alloca ptr, align 8
  %12 = alloca ptr, align 8
  %13 = alloca ptr, align 8
  %14 = alloca i32, align 4
  %15 = alloca i32, align 4
  store ptr %0, ptr %6, align 8, !tbaa !22
  store ptr %1, ptr %7, align 8, !tbaa !107
  store ptr %2, ptr %8, align 8, !tbaa !4
  store ptr %3, ptr %9, align 8, !tbaa !4
  call void @llvm.lifetime.start.p0(i64 8, ptr %10) #13
  call void @llvm.lifetime.start.p0(i64 8, ptr %11) #13
  call void @llvm.lifetime.start.p0(i64 8, ptr %12) #13
  call void @llvm.lifetime.start.p0(i64 8, ptr %13) #13
  %16 = call ptr @xmalloc(i64 noundef 32)
  store ptr %16, ptr %13, align 8, !tbaa !22
  call void @llvm.lifetime.start.p0(i64 4, ptr %14) #13
  %17 = load ptr, ptr %7, align 8, !tbaa !107
  %18 = load ptr, ptr %8, align 8, !tbaa !4
  %19 = call i32 @configset_find_element(ptr noundef %17, ptr noundef %18, ptr noundef %10)
  store i32 %19, ptr %14, align 4, !tbaa !13
  %20 = load i32, ptr %14, align 4, !tbaa !13
  %21 = icmp ne i32 %20, 0
  br i1 %21, label %22, label %24

22:                                               ; preds = %4
  %23 = load i32, ptr %14, align 4, !tbaa !13
  store i32 %23, ptr %5, align 4
  store i32 1, ptr %15, align 4
  br label %139

24:                                               ; preds = %4
  %25 = load ptr, ptr %10, align 8, !tbaa !117
  %26 = icmp ne ptr %25, null
  br i1 %26, label %43, label %27

27:                                               ; preds = %24
  %28 = call ptr @xmalloc(i64 noundef 64)
  store ptr %28, ptr %10, align 8, !tbaa !117
  %29 = load ptr, ptr %10, align 8, !tbaa !117
  %30 = getelementptr inbounds nuw %struct.config_set_element, ptr %29, i32 0, i32 0
  %31 = load ptr, ptr %8, align 8, !tbaa !4
  %32 = call i32 @strhash(ptr noundef %31)
  call void @hashmap_entry_init(ptr noundef %30, i32 noundef %32)
  %33 = load ptr, ptr %8, align 8, !tbaa !4
  %34 = call ptr @xstrdup(ptr noundef %33)
  %35 = load ptr, ptr %10, align 8, !tbaa !117
  %36 = getelementptr inbounds nuw %struct.config_set_element, ptr %35, i32 0, i32 1
  store ptr %34, ptr %36, align 8, !tbaa !119
  %37 = load ptr, ptr %10, align 8, !tbaa !117
  %38 = getelementptr inbounds nuw %struct.config_set_element, ptr %37, i32 0, i32 2
  call void @string_list_init_dup(ptr noundef %38)
  %39 = load ptr, ptr %7, align 8, !tbaa !107
  %40 = getelementptr inbounds nuw %struct.config_set, ptr %39, i32 0, i32 0
  %41 = load ptr, ptr %10, align 8, !tbaa !117
  %42 = getelementptr inbounds nuw %struct.config_set_element, ptr %41, i32 0, i32 0
  call void @hashmap_add(ptr noundef %40, ptr noundef %42)
  br label %43

43:                                               ; preds = %27, %24
  %44 = load ptr, ptr %10, align 8, !tbaa !117
  %45 = getelementptr inbounds nuw %struct.config_set_element, ptr %44, i32 0, i32 2
  %46 = load ptr, ptr %9, align 8, !tbaa !4
  %47 = call ptr @xstrdup_or_null(ptr noundef %46)
  %48 = call ptr @string_list_append_nodup(ptr noundef %45, ptr noundef %47)
  store ptr %48, ptr %11, align 8, !tbaa !141
  br label %49

49:                                               ; preds = %43
  %50 = load ptr, ptr %7, align 8, !tbaa !107
  %51 = getelementptr inbounds nuw %struct.config_set, ptr %50, i32 0, i32 2
  %52 = getelementptr inbounds nuw %struct.configset_list, ptr %51, i32 0, i32 1
  %53 = load i32, ptr %52, align 8, !tbaa !112
  %54 = add i32 %53, 1
  %55 = load ptr, ptr %7, align 8, !tbaa !107
  %56 = getelementptr inbounds nuw %struct.config_set, ptr %55, i32 0, i32 2
  %57 = getelementptr inbounds nuw %struct.configset_list, ptr %56, i32 0, i32 2
  %58 = load i32, ptr %57, align 4, !tbaa !113
  %59 = icmp ugt i32 %54, %58
  br i1 %59, label %60, label %109

60:                                               ; preds = %49
  %61 = load ptr, ptr %7, align 8, !tbaa !107
  %62 = getelementptr inbounds nuw %struct.config_set, ptr %61, i32 0, i32 2
  %63 = getelementptr inbounds nuw %struct.configset_list, ptr %62, i32 0, i32 2
  %64 = load i32, ptr %63, align 4, !tbaa !113
  %65 = add i32 %64, 16
  %66 = mul i32 %65, 3
  %67 = udiv i32 %66, 2
  %68 = load ptr, ptr %7, align 8, !tbaa !107
  %69 = getelementptr inbounds nuw %struct.config_set, ptr %68, i32 0, i32 2
  %70 = getelementptr inbounds nuw %struct.configset_list, ptr %69, i32 0, i32 1
  %71 = load i32, ptr %70, align 8, !tbaa !112
  %72 = add i32 %71, 1
  %73 = icmp ult i32 %67, %72
  br i1 %73, label %74, label %83

74:                                               ; preds = %60
  %75 = load ptr, ptr %7, align 8, !tbaa !107
  %76 = getelementptr inbounds nuw %struct.config_set, ptr %75, i32 0, i32 2
  %77 = getelementptr inbounds nuw %struct.configset_list, ptr %76, i32 0, i32 1
  %78 = load i32, ptr %77, align 8, !tbaa !112
  %79 = add i32 %78, 1
  %80 = load ptr, ptr %7, align 8, !tbaa !107
  %81 = getelementptr inbounds nuw %struct.config_set, ptr %80, i32 0, i32 2
  %82 = getelementptr inbounds nuw %struct.configset_list, ptr %81, i32 0, i32 2
  store i32 %79, ptr %82, align 4, !tbaa !113
  br label %94

83:                                               ; preds = %60
  %84 = load ptr, ptr %7, align 8, !tbaa !107
  %85 = getelementptr inbounds nuw %struct.config_set, ptr %84, i32 0, i32 2
  %86 = getelementptr inbounds nuw %struct.configset_list, ptr %85, i32 0, i32 2
  %87 = load i32, ptr %86, align 4, !tbaa !113
  %88 = add i32 %87, 16
  %89 = mul i32 %88, 3
  %90 = udiv i32 %89, 2
  %91 = load ptr, ptr %7, align 8, !tbaa !107
  %92 = getelementptr inbounds nuw %struct.config_set, ptr %91, i32 0, i32 2
  %93 = getelementptr inbounds nuw %struct.configset_list, ptr %92, i32 0, i32 2
  store i32 %90, ptr %93, align 4, !tbaa !113
  br label %94

94:                                               ; preds = %83, %74
  %95 = load ptr, ptr %7, align 8, !tbaa !107
  %96 = getelementptr inbounds nuw %struct.config_set, ptr %95, i32 0, i32 2
  %97 = getelementptr inbounds nuw %struct.configset_list, ptr %96, i32 0, i32 0
  %98 = load ptr, ptr %97, align 8, !tbaa !114
  %99 = load ptr, ptr %7, align 8, !tbaa !107
  %100 = getelementptr inbounds nuw %struct.config_set, ptr %99, i32 0, i32 2
  %101 = getelementptr inbounds nuw %struct.configset_list, ptr %100, i32 0, i32 2
  %102 = load i32, ptr %101, align 4, !tbaa !113
  %103 = zext i32 %102 to i64
  %104 = call i64 @st_mult(i64 noundef 16, i64 noundef %103)
  %105 = call ptr @xrealloc(ptr noundef %98, i64 noundef %104)
  %106 = load ptr, ptr %7, align 8, !tbaa !107
  %107 = getelementptr inbounds nuw %struct.config_set, ptr %106, i32 0, i32 2
  %108 = getelementptr inbounds nuw %struct.configset_list, ptr %107, i32 0, i32 0
  store ptr %105, ptr %108, align 8, !tbaa !114
  br label %109

109:                                              ; preds = %94, %49
  br label %110

110:                                              ; preds = %109
  br label %111

111:                                              ; preds = %110
  %112 = load ptr, ptr %7, align 8, !tbaa !107
  %113 = getelementptr inbounds nuw %struct.config_set, ptr %112, i32 0, i32 2
  %114 = getelementptr inbounds nuw %struct.configset_list, ptr %113, i32 0, i32 0
  %115 = load ptr, ptr %114, align 8, !tbaa !114
  %116 = load ptr, ptr %7, align 8, !tbaa !107
  %117 = getelementptr inbounds nuw %struct.config_set, ptr %116, i32 0, i32 2
  %118 = getelementptr inbounds nuw %struct.configset_list, ptr %117, i32 0, i32 1
  %119 = load i32, ptr %118, align 8, !tbaa !112
  %120 = add i32 %119, 1
  store i32 %120, ptr %118, align 8, !tbaa !112
  %121 = zext i32 %119 to i64
  %122 = getelementptr inbounds nuw %struct.configset_list_item, ptr %115, i64 %121
  store ptr %122, ptr %12, align 8, !tbaa !225
  %123 = load ptr, ptr %10, align 8, !tbaa !117
  %124 = load ptr, ptr %12, align 8, !tbaa !225
  %125 = getelementptr inbounds nuw %struct.configset_list_item, ptr %124, i32 0, i32 0
  store ptr %123, ptr %125, align 8, !tbaa !147
  %126 = load ptr, ptr %10, align 8, !tbaa !117
  %127 = getelementptr inbounds nuw %struct.config_set_element, ptr %126, i32 0, i32 2
  %128 = getelementptr inbounds nuw %struct.string_list, ptr %127, i32 0, i32 1
  %129 = load i64, ptr %128, align 8, !tbaa !226
  %130 = sub i64 %129, 1
  %131 = trunc i64 %130 to i32
  %132 = load ptr, ptr %12, align 8, !tbaa !225
  %133 = getelementptr inbounds nuw %struct.configset_list_item, ptr %132, i32 0, i32 1
  store i32 %131, ptr %133, align 8, !tbaa !149
  %134 = load ptr, ptr %13, align 8, !tbaa !22
  %135 = load ptr, ptr %6, align 8, !tbaa !22
  call void @llvm.memcpy.p0.p0.i64(ptr align 8 %134, ptr align 8 %135, i64 32, i1 false), !tbaa.struct !136
  %136 = load ptr, ptr %13, align 8, !tbaa !22
  %137 = load ptr, ptr %11, align 8, !tbaa !141
  %138 = getelementptr inbounds nuw %struct.string_list_item, ptr %137, i32 0, i32 1
  store ptr %136, ptr %138, align 8, !tbaa !135
  store i32 0, ptr %5, align 4
  store i32 1, ptr %15, align 4
  br label %139

139:                                              ; preds = %111, %22
  call void @llvm.lifetime.end.p0(i64 4, ptr %14) #13
  call void @llvm.lifetime.end.p0(i64 8, ptr %13) #13
  call void @llvm.lifetime.end.p0(i64 8, ptr %12) #13
  call void @llvm.lifetime.end.p0(i64 8, ptr %11) #13
  call void @llvm.lifetime.end.p0(i64 8, ptr %10) #13
  %140 = load i32, ptr %5, align 4
  ret i32 %140
}

; Function Attrs: nounwind uwtable
define internal i32 @config_set_callback(ptr noundef %0, ptr noundef %1, ptr noundef %2, ptr noundef %3) #0 {
  %5 = alloca ptr, align 8
  %6 = alloca ptr, align 8
  %7 = alloca ptr, align 8
  %8 = alloca ptr, align 8
  %9 = alloca ptr, align 8
  store ptr %0, ptr %5, align 8, !tbaa !4
  store ptr %1, ptr %6, align 8, !tbaa !4
  store ptr %2, ptr %7, align 8, !tbaa !46
  store ptr %3, ptr %8, align 8, !tbaa !30
  call void @llvm.lifetime.start.p0(i64 8, ptr %9) #13
  %10 = load ptr, ptr %8, align 8, !tbaa !30
  store ptr %10, ptr %9, align 8, !tbaa !107
  %11 = load ptr, ptr %7, align 8, !tbaa !46
  %12 = getelementptr inbounds nuw %struct.config_context, ptr %11, i32 0, i32 0
  %13 = load ptr, ptr %12, align 8, !tbaa !37
  %14 = load ptr, ptr %9, align 8, !tbaa !107
  %15 = load ptr, ptr %5, align 8, !tbaa !4
  %16 = load ptr, ptr %6, align 8, !tbaa !4
  %17 = call i32 @configset_add_value(ptr noundef %13, ptr noundef %14, ptr noundef %15, ptr noundef %16)
  call void @llvm.lifetime.end.p0(i64 8, ptr %9) #13
  ret i32 0
}