; Function Attrs: nounwind uwtable
define internal noundef i32 @config_set_callback(ptr noundef %0, ptr noundef %1, ptr noundef readonly captures(none) %2, ptr noundef %3) #0 {
  %5 = alloca %struct.config_set_element, align 8
  %6 = alloca ptr, align 8
  %7 = load ptr, ptr %2, align 8, !tbaa !28
  %8 = tail call ptr @xmalloc(i64 noundef 32) #30
  call void @llvm.lifetime.start.p0(i64 64, ptr nonnull %5) #30
  call void @llvm.lifetime.start.p0(i64 8, ptr nonnull %6) #30
  %9 = call i32 @git_config_parse_key(ptr noundef %0, ptr noundef nonnull %6, ptr noundef null)
  %.not.i.i = icmp eq i32 %9, 0
  br i1 %.not.i.i, label %10, label %configset_find_element.exit.i

configset_find_element.exit.i:                    ; preds = %4
  call void @llvm.lifetime.end.p0(i64 8, ptr nonnull %6) #30
  call void @llvm.lifetime.end.p0(i64 64, ptr nonnull %5) #30
  br label %configset_add_value.exit

10:                                               ; preds = %4
  %11 = load ptr, ptr %6, align 8, !tbaa !17
  %12 = tail call i32 @strhash(ptr noundef %11) #30
  %13 = getelementptr inbounds nuw i8, ptr %5, i64 8
  store i32 %12, ptr %13, align 8, !tbaa !114
  store ptr null, ptr %5, align 8, !tbaa !115
  %14 = getelementptr inbounds nuw i8, ptr %5, i64 16
  store ptr %11, ptr %14, align 8, !tbaa !108
  %15 = call ptr @hashmap_get(ptr noundef %3, ptr noundef nonnull %5, ptr noundef null) #30
  call void @free(ptr noundef %11) #30
  call void @llvm.lifetime.end.p0(i64 8, ptr nonnull %6) #30
  call void @llvm.lifetime.end.p0(i64 64, ptr nonnull %5) #30
  %.not31.i = icmp eq ptr %15, null
  br i1 %.not31.i, label %16, label %23

16:                                               ; preds = %10
  %17 = call ptr @xmalloc(i64 noundef 64) #30
  %18 = call i32 @strhash(ptr noundef %0) #30
  %19 = getelementptr inbounds nuw i8, ptr %17, i64 8
  store i32 %18, ptr %19, align 8, !tbaa !114
  store ptr null, ptr %17, align 8, !tbaa !115
  %20 = call ptr @xstrdup(ptr noundef %0) #30
  %21 = getelementptr inbounds nuw i8, ptr %17, i64 16
  store ptr %20, ptr %21, align 8, !tbaa !108
  %22 = getelementptr inbounds nuw i8, ptr %17, i64 24
  call void @string_list_init_dup(ptr noundef nonnull %22) #30
  call void @hashmap_add(ptr noundef %3, ptr noundef nonnull %17) #30
  br label %23

23:                                               ; preds = %16, %10
  %.038.i = phi ptr [ %17, %16 ], [ %15, %10 ]
  %24 = getelementptr inbounds nuw i8, ptr %.038.i, i64 24
  %.not.i32.i = icmp eq ptr %1, null
  br i1 %.not.i32.i, label %xstrdup_or_null.exit.i, label %25

25:                                               ; preds = %23
  %26 = call ptr @xstrdup(ptr noundef nonnull %1) #30
  br label %xstrdup_or_null.exit.i

xstrdup_or_null.exit.i:                           ; preds = %25, %23
  %27 = phi ptr [ %26, %25 ], [ null, %23 ]
  %28 = call ptr @string_list_append_nodup(ptr noundef nonnull %24, ptr noundef %27) #30
  %29 = getelementptr inbounds nuw i8, ptr %3, i64 56
  %30 = getelementptr inbounds nuw i8, ptr %3, i64 64
  %31 = load i32, ptr %30, align 8, !tbaa !116
  %32 = add i32 %31, 1
  %33 = getelementptr inbounds nuw i8, ptr %3, i64 68
  %34 = load i32, ptr %33, align 4, !tbaa !117
  %35 = icmp ugt i32 %32, %34
  %.pre.i = load ptr, ptr %29, align 8, !tbaa !113
  br i1 %35, label %36, label %43

36:                                               ; preds = %xstrdup_or_null.exit.i
  %37 = mul i32 %34, 3
  %38 = add i32 %37, 48
  %39 = lshr i32 %38, 1
  %..i = call i32 @llvm.umax.i32(i32 %39, i32 %32)
  store i32 %..i, ptr %33, align 4, !tbaa !117
  %40 = zext i32 %..i to i64
  %41 = shl nuw nsw i64 %40, 4
  %42 = call ptr @xrealloc(ptr noundef %.pre.i, i64 noundef %41) #30
  store ptr %42, ptr %29, align 8, !tbaa !113
  %.pre41.i = load i32, ptr %30, align 8, !tbaa !116
  %.pre42.i = add i32 %.pre41.i, 1
  br label %43

43:                                               ; preds = %36, %xstrdup_or_null.exit.i
  %.pre-phi.i = phi i32 [ %.pre42.i, %36 ], [ %32, %xstrdup_or_null.exit.i ]
  %44 = phi i32 [ %.pre41.i, %36 ], [ %31, %xstrdup_or_null.exit.i ]
  %45 = phi ptr [ %42, %36 ], [ %.pre.i, %xstrdup_or_null.exit.i ]
  store i32 %.pre-phi.i, ptr %30, align 8, !tbaa !116
  %46 = zext i32 %44 to i64
  %47 = getelementptr inbounds nuw %struct.configset_list_item, ptr %45, i64 %46
  store ptr %.038.i, ptr %47, align 8, !tbaa !118
  %48 = getelementptr inbounds nuw i8, ptr %.038.i, i64 32
  %49 = load i64, ptr %48, align 8, !tbaa !121
  %50 = trunc i64 %49 to i32
  %51 = add i32 %50, -1
  %52 = getelementptr inbounds nuw i8, ptr %47, i64 8
  store i32 %51, ptr %52, align 8, !tbaa !122
  call void @llvm.memcpy.p0.p0.i64(ptr noundef nonnull align 8 dereferenceable(32) %8, ptr noundef nonnull readonly align 8 dereferenceable(32) %7, i64 32, i1 false), !tbaa.struct !123
  %53 = getelementptr inbounds nuw i8, ptr %28, i64 8
  store ptr %8, ptr %53, align 8, !tbaa !124
  br label %configset_add_value.exit

configset_add_value.exit:                         ; preds = %configset_find_element.exit.i, %43
  ret i32 0
}